target datalayout = "e-m:e-p270:32:32-p271:32:32-p272:64:64-i64:64-i128:128-f80:128-n8:16:32:64-S128"
target triple = "x86_64-pc-linux-gnu"

%struct.DdNode = type { i32, i32, ptr, %union.anon, i64 }
%union.anon = type { %struct.DdChildren }
%struct.DdChildren = type { ptr, ptr }

; Function Attrs: nounwind uwtable
define internal void @ddClearLocal(ptr noundef %0) #0 {
  %2 = alloca ptr, align 8
  store ptr %0, ptr %2, align 8, !tbaa !29
  %3 = load ptr, ptr %2, align 8, !tbaa !29
  %4 = getelementptr inbounds nuw %struct.DdNode, ptr %3, i32 0, i32 0
  %5 = load i32, ptr %4, align 8, !tbaa !44
  %6 = icmp eq i32 %5, 2147483647
  br i1 %6, label %16, label %7

7:                                                ; preds = %1
  %8 = load ptr, ptr %2, align 8, !tbaa !29
  %9 = getelementptr inbounds nuw %struct.DdNode, ptr %8, i32 0, i32 3
  %10 = getelementptr inbounds nuw %struct.DdChildren, ptr %9, i32 0, i32 0
  %11 = load ptr, ptr %10, align 8, !tbaa !45
  %12 = ptrtoint ptr %11 to i64
  %13 = and i64 %12, 1
  %14 = trunc i64 %13 to i32
  %15 = icmp ne i32 %14, 0
  br i1 %15, label %17, label %16

16:                                               ; preds = %7, %1
  br label %39

17:                                               ; preds = %7
  %18 = load ptr, ptr %2, align 8, !tbaa !29
  %19 = getelementptr inbounds nuw %struct.DdNode, ptr %18, i32 0, i32 3
  %20 = getelementptr inbounds nuw %struct.DdChildren, ptr %19, i32 0, i32 0
  %21 = load ptr, ptr %20, align 8, !tbaa !45
  %22 = ptrtoint ptr %21 to i64
  %23 = and i64 %22, -2
  %24 = inttoptr i64 %23 to ptr
  %25 = load ptr, ptr %2, align 8, !tbaa !29
  %26 = getelementptr inbounds nuw %struct.DdNode, ptr %25, i32 0, i32 3
  %27 = getelementptr inbounds nuw %struct.DdChildren, ptr %26, i32 0, i32 0
  store ptr %24, ptr %27, align 8, !tbaa !45
  %28 = load ptr, ptr %2, align 8, !tbaa !29
  %29 = getelementptr inbounds nuw %struct.DdNode, ptr %28, i32 0, i32 3
  %30 = getelementptr inbounds nuw %struct.DdChildren, ptr %29, i32 0, i32 0
  %31 = load ptr, ptr %30, align 8, !tbaa !45
  call void @ddClearLocal(ptr noundef %31)
  %32 = load ptr, ptr %2, align 8, !tbaa !29
  %33 = getelementptr inbounds nuw %struct.DdNode, ptr %32, i32 0, i32 3
  %34 = getelementptr inbounds nuw %struct.DdChildren, ptr %33, i32 0, i32 1
  %35 = load ptr, ptr %34, align 8, !tbaa !45
  %36 = ptrtoint ptr %35 to i64
  %37 = and i64 %36, -2
  %38 = inttoptr i64 %37 to ptr
  call void @ddClearLocal(ptr noundef %38)
  br label %39

39:                                               ; preds = %17, %16
  ret void
}