; Function Attrs: nofree nosync nounwind memory(readwrite, inaccessiblemem: none) uwtable
define internal fastcc void @ddClearLocal(ptr noundef captures(none) %0) unnamed_addr #5 {
  %2 = load i32, ptr %0, align 8, !tbaa !42
  %3 = icmp eq i32 %2, 2147483647
  br i1 %3, label %tailrecurse._crit_edge, label %.lr.ph

.lr.ph:                                           ; preds = %1, %tailrecurse
  %.tr6 = phi ptr [ %14, %tailrecurse ], [ %0, %1 ]
  %4 = getelementptr inbounds nuw i8, ptr %.tr6, i64 16
  %5 = load ptr, ptr %4, align 8, !tbaa !43
  %6 = ptrtoint ptr %5 to i64
  %7 = and i64 %6, 1
  %.not = icmp eq i64 %7, 0
  br i1 %.not, label %tailrecurse._crit_edge, label %tailrecurse

tailrecurse:                                      ; preds = %.lr.ph
  %8 = and i64 %6, -2
  %9 = inttoptr i64 %8 to ptr
  store ptr %9, ptr %4, align 8, !tbaa !43
  tail call fastcc void @ddClearLocal(ptr noundef %9)
  %10 = getelementptr inbounds nuw i8, ptr %.tr6, i64 24
  %11 = load ptr, ptr %10, align 8, !tbaa !43
  %12 = ptrtoint ptr %11 to i64
  %13 = and i64 %12, -2
  %14 = inttoptr i64 %13 to ptr
  %15 = load i32, ptr %14, align 8, !tbaa !42
  %16 = icmp eq i32 %15, 2147483647
  br i1 %16, label %tailrecurse._crit_edge, label %.lr.ph

tailrecurse._crit_edge:                           ; preds = %.lr.ph, %tailrecurse, %1
  ret void
}